; Function Attrs: mustprogress uwtable
define void @_ZNK6casadi12ConstantFile14serialize_typeERNS_17SerializingStreamE(ptr noundef nonnull align 8 dereferenceable(120) %0, ptr noundef nonnull align 8 dereferenceable(73) %1) unnamed_addr #3 align 2 personality ptr @__gxx_personality_v0 {
  %3 = alloca %"class.std::__cxx11::basic_string", align 8
  %4 = alloca %"class.std::allocator.8", align 1
  tail call void @_ZNK6casadi6MXNode14serialize_typeERNS_17SerializingStreamE(ptr noundef nonnull align 8 dereferenceable(64) %0, ptr noundef nonnull align 8 dereferenceable(73) %1)
  call void @_ZNSaIcEC1Ev(ptr noundef nonnull align 1 dereferenceable(1) %4) #25
  %5 = invoke noundef ptr @_ZNSt7__cxx1112basic_stringIcSt11char_traitsIcESaIcEE13_M_local_dataEv(ptr noundef nonnull align 8 dereferenceable(32) %3)
          to label %.noexc unwind label %12

.noexc:                                           ; preds = %2
  invoke void @_ZNSt7__cxx1112basic_stringIcSt11char_traitsIcESaIcEE12_Alloc_hiderC1EPcRKS3_(ptr noundef nonnull align 8 dereferenceable(8) %3, ptr noundef %5, ptr noundef nonnull align 1 dereferenceable(1) %4)
          to label %.noexc6 unwind label %12

.noexc6:                                          ; preds = %.noexc
  invoke void @_ZNSt7__cxx1112basic_stringIcSt11char_traitsIcESaIcEE12_M_constructIPKcEEvT_S8_St20forward_iterator_tag(ptr noundef nonnull align 8 dereferenceable(32) %3, ptr noundef nonnull @.str.15, ptr noundef nonnull getelementptr inbounds ([19 x i8], ptr @.str.15, i64 0, i64 18))
          to label %_ZNSt7__cxx1112basic_stringIcSt11char_traitsIcESaIcEEC2IS3_EEPKcRKS3_.exit unwind label %6

6:                                                ; preds = %.noexc6
  %7 = landingpad { ptr, i32 }
          cleanup
  call void @_ZNSaIcED2Ev(ptr noundef nonnull align 1 dereferenceable(1) %3) #25
  br label %.body

_ZNSt7__cxx1112basic_stringIcSt11char_traitsIcESaIcEEC2IS3_EEPKcRKS3_.exit: ; preds = %.noexc6
  %8 = getelementptr inbounds i8, ptr %1, i64 72
  %9 = load i8, ptr %8, align 8
  %10 = and i8 %9, 1
  %.not.i = icmp eq i8 %10, 0
  br i1 %.not.i, label %.noexc7, label %11

11:                                               ; preds = %_ZNSt7__cxx1112basic_stringIcSt11char_traitsIcESaIcEEC2IS3_EEPKcRKS3_.exit
  invoke void @_ZN6casadi17SerializingStream4packERKNSt7__cxx1112basic_stringIcSt11char_traitsIcESaIcEEE(ptr noundef nonnull align 8 dereferenceable(73) %1, ptr noundef nonnull align 8 dereferenceable(32) %3)
          to label %.noexc7 unwind label %14

.noexc7:                                          ; preds = %11, %_ZNSt7__cxx1112basic_stringIcSt11char_traitsIcESaIcEEC2IS3_EEPKcRKS3_.exit
  invoke void @_ZN6casadi17SerializingStream4packEc(ptr noundef nonnull align 8 dereferenceable(73) %1, i8 noundef signext 102)
          to label %_ZN6casadi17SerializingStream4packIcEEvRKNSt7__cxx1112basic_stringIcSt11char_traitsIcESaIcEEERKT_.exit unwind label %14

_ZN6casadi17SerializingStream4packIcEEvRKNSt7__cxx1112basic_stringIcSt11char_traitsIcESaIcEEERKT_.exit: ; preds = %.noexc7
  call void @_ZNSt7__cxx1112basic_stringIcSt11char_traitsIcESaIcEED1Ev(ptr noundef nonnull align 8 dereferenceable(32) %3) #25
  call void @_ZNSaIcED1Ev(ptr noundef nonnull align 1 dereferenceable(1) %4) #25
  ret void

12:                                               ; preds = %.noexc, %2
  %13 = landingpad { ptr, i32 }
          cleanup
  br label %.body

14:                                               ; preds = %.noexc7, %11
  %15 = landingpad { ptr, i32 }
          cleanup
  call void @_ZNSt7__cxx1112basic_stringIcSt11char_traitsIcESaIcEED1Ev(ptr noundef nonnull align 8 dereferenceable(32) %3) #25
  br label %.body

.body:                                            ; preds = %12, %6, %14
  %.pn = phi { ptr, i32 } [ %15, %14 ], [ %13, %12 ], [ %7, %6 ]
  call void @_ZNSaIcED1Ev(ptr noundef nonnull align 1 dereferenceable(1) %4) #25
  resume { ptr, i32 } %.pn
}